; Function Attrs: mustprogress nofree norecurse nosync nounwind willreturn memory(read, inaccessiblemem: none) uwtable
define noundef range(i64 -1152921504606846976, 1152921504606846976) i64 @_ZNK5faiss18ArrayInvertedLists9list_sizeEm(ptr noundef nonnull readonly align 8 captures(none) dereferenceable(80) %0, i64 noundef %1) unnamed_addr #6 align 2 {
  %3 = getelementptr inbounds nuw i8, ptr %0, i64 56
  %4 = load ptr, ptr %3, align 8, !tbaa !42
  %5 = getelementptr inbounds nuw %"class.std::vector", ptr %4, i64 %1
  %6 = getelementptr inbounds nuw i8, ptr %5, i64 8
  %7 = load ptr, ptr %6, align 8, !tbaa !45
  %8 = load ptr, ptr %5, align 8, !tbaa !47
  %9 = ptrtoint ptr %7 to i64
  %10 = ptrtoint ptr %8 to i64
  %11 = sub i64 %9, %10
  %12 = ashr exact i64 %11, 3
  ret i64 %12
}